target datalayout = "e-m:e-p270:32:32-p271:32:32-p272:64:64-i64:64-i128:128-f80:128-n8:16:32:64-S128"
target triple = "x86_64-pc-linux-gnu"

%"class.std::__cxx11::basic_string" = type { %"struct.std::__cxx11::basic_string<char>::_Alloc_hider", i64, %union.anon }
%"struct.std::__cxx11::basic_string<char>::_Alloc_hider" = type { ptr }
%union.anon = type { i64, [8 x i8] }
%class.cmArchiveWrite = type { ptr, ptr, ptr, i8, %"class.std::__cxx11::basic_string", %"class.std::__cxx11::basic_string", %"class.std::__cxx11::basic_string", %class.cmArchiveWriteOptional, %class.cmArchiveWriteOptional, %"class.std::__cxx11::basic_string", %"class.std::__cxx11::basic_string", %class.cmArchiveWriteOptional, %class.cmArchiveWriteOptional }
%class.cmArchiveWriteOptional = type <{ i32, i8, [3 x i8] }>

; Function Attrs: mustprogress nounwind uwtable
define dso_local void @_ZN14cmArchiveWriteD2Ev(ptr noundef nonnull align 8 dereferenceable(224) %0) unnamed_addr #5 align 2 personality ptr @__gxx_personality_v0 {
  %2 = alloca ptr, align 8
  store ptr %0, ptr %2, align 8
  %3 = load ptr, ptr %2, align 8
  %4 = getelementptr inbounds %class.cmArchiveWrite, ptr %3, i32 0, i32 2
  %5 = load ptr, ptr %4, align 8
  %6 = invoke i32 @archive_read_free(ptr noundef %5)
          to label %7 unwind label %17

7:                                                ; preds = %1
  %8 = getelementptr inbounds %class.cmArchiveWrite, ptr %3, i32 0, i32 1
  %9 = load ptr, ptr %8, align 8
  %10 = invoke i32 @archive_write_free(ptr noundef %9)
          to label %11 unwind label %17

11:                                               ; preds = %7
  %12 = getelementptr inbounds %class.cmArchiveWrite, ptr %3, i32 0, i32 10
  call void @_ZNSt7__cxx1112basic_stringIcSt11char_traitsIcESaIcEED1Ev(ptr noundef nonnull align 8 dereferenceable(32) %12) #3
  %13 = getelementptr inbounds %class.cmArchiveWrite, ptr %3, i32 0, i32 9
  call void @_ZNSt7__cxx1112basic_stringIcSt11char_traitsIcESaIcEED1Ev(ptr noundef nonnull align 8 dereferenceable(32) %13) #3
  %14 = getelementptr inbounds %class.cmArchiveWrite, ptr %3, i32 0, i32 6
  call void @_ZNSt7__cxx1112basic_stringIcSt11char_traitsIcESaIcEED1Ev(ptr noundef nonnull align 8 dereferenceable(32) %14) #3
  %15 = getelementptr inbounds %class.cmArchiveWrite, ptr %3, i32 0, i32 5
  call void @_ZNSt7__cxx1112basic_stringIcSt11char_traitsIcESaIcEED1Ev(ptr noundef nonnull align 8 dereferenceable(32) %15) #3
  %16 = getelementptr inbounds %class.cmArchiveWrite, ptr %3, i32 0, i32 4
  call void @_ZNSt7__cxx1112basic_stringIcSt11char_traitsIcESaIcEED1Ev(ptr noundef nonnull align 8 dereferenceable(32) %16) #3
  ret void

17:                                               ; preds = %7, %1
  %18 = landingpad { ptr, i32 }
          catch ptr null
  %19 = extractvalue { ptr, i32 } %18, 0
  call void @__clang_call_terminate(ptr %19) #11
  unreachable
}